; Function Attrs: uwtable
define void @_ZN7rocksdb8FlushJob18RecordFlushIOStatsEv(ptr noundef nonnull readonly align 8 captures(none) dereferenceable(1688) %0) local_unnamed_addr #5 align 2 {
  %2 = getelementptr inbounds nuw i8, ptr %0, i64 368
  %3 = load ptr, ptr %2, align 8, !tbaa !141
  %.not.i = icmp eq ptr @_ZTHN7rocksdb15iostats_contextE, null
  br i1 %.not.i, label %_ZTWN7rocksdb15iostats_contextE.exit, label %4

4:                                                ; preds = %1
  tail call void @_ZTHN7rocksdb15iostats_contextE()
  br label %_ZTWN7rocksdb15iostats_contextE.exit

_ZTWN7rocksdb15iostats_contextE.exit:             ; preds = %1, %4
  %5 = tail call noundef align 8 ptr @llvm.threadlocal.address.p0(ptr align 8 @_ZN7rocksdb15iostats_contextE)
  %6 = getelementptr inbounds nuw i8, ptr %5, i64 8
  %.not.i1 = icmp eq ptr %3, null
  br i1 %.not.i1, label %_ZN7rocksdb10RecordTickEPNS_10StatisticsEjm.exit, label %7

7:                                                ; preds = %_ZTWN7rocksdb15iostats_contextE.exit
  %8 = load i64, ptr %6, align 8, !tbaa !258
  %9 = load ptr, ptr %3, align 8, !tbaa !264
  %10 = getelementptr inbounds nuw i8, ptr %9, i64 176
  %11 = load ptr, ptr %10, align 8
  tail call void %11(ptr noundef nonnull align 8 dereferenceable(33) %3, i32 noundef 90, i64 noundef %8)
  br label %_ZN7rocksdb10RecordTickEPNS_10StatisticsEjm.exit

_ZN7rocksdb10RecordTickEPNS_10StatisticsEjm.exit: ; preds = %_ZTWN7rocksdb15iostats_contextE.exit, %7
  br i1 %.not.i, label %_ZTWN7rocksdb15iostats_contextE.exit3.thread, label %13

_ZTWN7rocksdb15iostats_contextE.exit3.thread:     ; preds = %_ZN7rocksdb10RecordTickEPNS_10StatisticsEjm.exit
  %12 = load i64, ptr %6, align 8, !tbaa !258
  tail call void @_ZN7rocksdb16ThreadStatusUtil31IncreaseThreadOperationPropertyEim(i32 noundef 2, i64 noundef %12)
  br label %_ZTWN7rocksdb15iostats_contextE.exit5

13:                                               ; preds = %_ZN7rocksdb10RecordTickEPNS_10StatisticsEjm.exit
  tail call void @_ZTHN7rocksdb15iostats_contextE()
  %14 = load i64, ptr %6, align 8, !tbaa !258
  tail call void @_ZN7rocksdb16ThreadStatusUtil31IncreaseThreadOperationPropertyEim(i32 noundef 2, i64 noundef %14)
  tail call void @_ZTHN7rocksdb15iostats_contextE()
  br label %_ZTWN7rocksdb15iostats_contextE.exit5

_ZTWN7rocksdb15iostats_contextE.exit5:            ; preds = %_ZTWN7rocksdb15iostats_contextE.exit3.thread, %13
  store i64 0, ptr %6, align 8, !tbaa !258
  ret void
}